target datalayout = "e-m:e-p270:32:32-p271:32:32-p272:64:64-i64:64-i128:128-f80:128-n8:16:32:64-S128"
target triple = "x86_64-pc-linux-gnu"

%struct.EncStatsFile = type { ptr, ptr }

@nb_enc_stats_files = internal global i32 0, align 4
@enc_stats_files = internal global ptr null, align 8

; Function Attrs: nounwind uwtable
define void @of_enc_stats_close() #0 {
  %1 = alloca i32, align 4
  call void @llvm.lifetime.start.p0(i64 4, ptr %1) #12
  store i32 0, ptr %1, align 4, !tbaa !4
  br label %2

2:                                                ; preds = %19, %0
  %3 = load i32, ptr %1, align 4, !tbaa !4
  %4 = load i32, ptr @nb_enc_stats_files, align 4, !tbaa !4
  %5 = icmp slt i32 %3, %4
  br i1 %5, label %7, label %6

6:                                                ; preds = %2
  call void @llvm.lifetime.end.p0(i64 4, ptr %1) #12
  br label %22

7:                                                ; preds = %2
  %8 = load ptr, ptr @enc_stats_files, align 8, !tbaa !8
  %9 = load i32, ptr %1, align 4, !tbaa !4
  %10 = sext i32 %9 to i64
  %11 = getelementptr inbounds %struct.EncStatsFile, ptr %8, i64 %10
  %12 = getelementptr inbounds nuw %struct.EncStatsFile, ptr %11, i32 0, i32 0
  call void @av_freep(ptr noundef %12)
  %13 = load ptr, ptr @enc_stats_files, align 8, !tbaa !8
  %14 = load i32, ptr %1, align 4, !tbaa !4
  %15 = sext i32 %14 to i64
  %16 = getelementptr inbounds %struct.EncStatsFile, ptr %13, i64 %15
  %17 = getelementptr inbounds nuw %struct.EncStatsFile, ptr %16, i32 0, i32 1
  %18 = call i32 @avio_closep(ptr noundef %17)
  br label %19

19:                                               ; preds = %7
  %20 = load i32, ptr %1, align 4, !tbaa !4
  %21 = add nsw i32 %20, 1
  store i32 %21, ptr %1, align 4, !tbaa !4
  br label %2, !llvm.loop !11

22:                                               ; preds = %6
  call void @av_freep(ptr noundef @enc_stats_files)
  store i32 0, ptr @nb_enc_stats_files, align 4, !tbaa !4
  ret void
}