; Function Attrs: nounwind uwtable
define void @of_enc_stats_close() local_unnamed_addr #0 {
  %1 = load i32, ptr @nb_enc_stats_files, align 4, !tbaa !4
  %2 = icmp sgt i32 %1, 0
  br i1 %2, label %.lr.ph, label %._crit_edge

._crit_edge:                                      ; preds = %.lr.ph, %0
  tail call void @av_freep(ptr noundef nonnull @enc_stats_files) #16
  store i32 0, ptr @nb_enc_stats_files, align 4, !tbaa !4
  ret void

.lr.ph:                                           ; preds = %0, %.lr.ph
  %indvars.iv = phi i64 [ %indvars.iv.next, %.lr.ph ], [ 0, %0 ]
  %3 = load ptr, ptr @enc_stats_files, align 8, !tbaa !8
  %4 = getelementptr inbounds nuw %struct.EncStatsFile, ptr %3, i64 %indvars.iv
  tail call void @av_freep(ptr noundef %4) #16
  %5 = load ptr, ptr @enc_stats_files, align 8, !tbaa !8
  %6 = getelementptr inbounds nuw %struct.EncStatsFile, ptr %5, i64 %indvars.iv, i32 1
  %7 = tail call i32 @avio_closep(ptr noundef nonnull %6) #16
  %indvars.iv.next = add nuw nsw i64 %indvars.iv, 1
  %8 = load i32, ptr @nb_enc_stats_files, align 4, !tbaa !4
  %9 = sext i32 %8 to i64
  %10 = icmp slt i64 %indvars.iv.next, %9
  br i1 %10, label %.lr.ph, label %._crit_edge, !llvm.loop !11
}